target datalayout = "e-m:e-p270:32:32-p271:32:32-p272:64:64-i64:64-i128:128-f80:128-n8:16:32:64-S128"
target triple = "x86_64-unknown-linux-gnu"

%"class.v8::Local" = type { %"class.v8::LocalBase" }
%"class.v8::LocalBase" = type { %"class.v8::IndirectHandleBase" }
%"class.v8::IndirectHandleBase" = type { ptr }
%"class.std::unique_ptr.2" = type { %"struct.std::__uniq_ptr_data.3" }
%"struct.std::__uniq_ptr_data.3" = type { %"class.std::__uniq_ptr_impl.4" }
%"class.std::__uniq_ptr_impl.4" = type { %"class.std::tuple.5" }
%"class.std::tuple.5" = type { %"struct.std::_Tuple_impl.6" }
%"struct.std::_Tuple_impl.6" = type { %"struct.std::_Head_base.9" }
%"struct.std::_Head_base.9" = type { ptr }
%"class.node::crypto::TLSWrap" = type <{ %"class.node::AsyncWrap", %"class.node::StreamBase", %"class.node::StreamListener", ptr, i32, [4 x i8], %"class.std::unique_ptr", %"class.std::unique_ptr.2", %"class.node::crypto::ClientHelloParser", %"class.v8::Global.10", %"class.node::BaseObjectPtrImpl", %"class.node::BaseObjectPtrImpl", ptr, ptr, %"class.std::unique_ptr.12", i64, %"class.node::BaseObjectPtrImpl.20", %"class.node::BaseObjectPtrImpl.20", %"class.std::__cxx11::basic_string", i8, i8, i8, i8, i8, i8, i8, i8, i8, [3 x i8], i32, ptr, ptr, %"class.std::unique_ptr.23", i8, [7 x i8], %"class.std::vector", i8, [7 x i8] }>
%"class.node::AsyncWrap" = type { %"class.node::BaseObject", i32, i8, double, double }
%"class.node::BaseObject" = type { %"class.node::MemoryRetainer", %"class.v8::Global", ptr, ptr }
%"class.node::MemoryRetainer" = type { ptr }
%"class.v8::Global" = type { %"class.v8::PersistentBase" }
%"class.v8::PersistentBase" = type { %"class.v8::IndirectHandleBase" }
%"class.node::StreamBase" = type { %"class.node::StreamResource", ptr, %"class.node::EmitToJSStreamListener" }
%"class.node::StreamResource" = type { ptr, ptr, i64, i64 }
%"class.node::EmitToJSStreamListener" = type { %"class.node::ReportWritesToJSStreamListener" }
%"class.node::ReportWritesToJSStreamListener" = type { %"class.node::StreamListener" }
%"class.node::StreamListener" = type { ptr, ptr, ptr }
%"class.std::unique_ptr" = type { %"struct.std::__uniq_ptr_data" }
%"struct.std::__uniq_ptr_data" = type { %"class.std::__uniq_ptr_impl" }
%"class.std::__uniq_ptr_impl" = type { %"class.std::tuple" }
%"class.std::tuple" = type { %"struct.std::_Tuple_impl" }
%"struct.std::_Tuple_impl" = type { %"struct.std::_Head_base.1" }
%"struct.std::_Head_base.1" = type { ptr }
%"class.node::crypto::ClientHelloParser" = type { i32, ptr, ptr, ptr, i64, i64, i64, i8, ptr, i16, ptr, i16, ptr }
%"class.v8::Global.10" = type { %"class.v8::PersistentBase.11" }
%"class.v8::PersistentBase.11" = type { %"class.v8::IndirectHandleBase" }
%"class.node::BaseObjectPtrImpl" = type { %union.anon }
%union.anon = type { ptr }
%"class.std::unique_ptr.12" = type { %"struct.std::__uniq_ptr_data.13" }
%"struct.std::__uniq_ptr_data.13" = type { %"class.std::__uniq_ptr_impl.14" }
%"class.std::__uniq_ptr_impl.14" = type { %"class.std::tuple.15" }
%"class.std::tuple.15" = type { %"struct.std::_Tuple_impl.16" }
%"struct.std::_Tuple_impl.16" = type { %"struct.std::_Head_base.19" }
%"struct.std::_Head_base.19" = type { ptr }
%"class.node::BaseObjectPtrImpl.20" = type { %union.anon.21 }
%union.anon.21 = type { ptr }
%"class.std::__cxx11::basic_string" = type { %"struct.std::__cxx11::basic_string<char>::_Alloc_hider", i64, %union.anon.22 }
%"struct.std::__cxx11::basic_string<char>::_Alloc_hider" = type { ptr }
%union.anon.22 = type { i64, [8 x i8] }
%"class.std::unique_ptr.23" = type { %"struct.std::__uniq_ptr_data.24" }
%"struct.std::__uniq_ptr_data.24" = type { %"class.std::__uniq_ptr_impl.25" }
%"class.std::__uniq_ptr_impl.25" = type { %"class.std::tuple.26" }
%"class.std::tuple.26" = type { %"struct.std::_Tuple_impl.27" }
%"struct.std::_Tuple_impl.27" = type { %"struct.std::_Head_base.30" }
%"struct.std::_Head_base.30" = type { ptr }
%"class.std::vector" = type { %"struct.std::_Vector_base" }
%"struct.std::_Vector_base" = type { %"struct.std::_Vector_base<unsigned char, std::allocator<unsigned char>>::_Vector_impl" }
%"struct.std::_Vector_base<unsigned char, std::allocator<unsigned char>>::_Vector_impl" = type { %"struct.std::_Vector_base<unsigned char, std::allocator<unsigned char>>::_Vector_impl_data" }
%"struct.std::_Vector_base<unsigned char, std::allocator<unsigned char>>::_Vector_impl_data" = type { ptr, ptr, ptr }
%"class.v8::Local.313" = type { %"class.v8::LocalBase.314" }
%"class.v8::LocalBase.314" = type { %"class.v8::IndirectHandleBase" }

; Function Attrs: mustprogress nounwind uwtable
define linkonce_odr dso_local void @_ZN4node6crypto17ClientHelloParser3EndEv(ptr noundef nonnull align 8 dereferenceable(104) %this) #4 comdat align 2 {
entry:
  %this.addr = alloca ptr, align 8
  store ptr %this, ptr %this.addr, align 8
  %this1 = load ptr, ptr %this.addr, align 8
  %state_ = getelementptr inbounds %"class.node::crypto::ClientHelloParser", ptr %this1, i32 0, i32 0
  %0 = load i32, ptr %state_, align 8
  %cmp = icmp eq i32 %0, 3
  br i1 %cmp, label %if.then, label %if.end

if.then:                                          ; preds = %entry
  br label %if.end7

if.end:                                           ; preds = %entry
  %state_2 = getelementptr inbounds %"class.node::crypto::ClientHelloParser", ptr %this1, i32 0, i32 0
  store i32 3, ptr %state_2, align 8
  %onend_cb_ = getelementptr inbounds %"class.node::crypto::ClientHelloParser", ptr %this1, i32 0, i32 2
  %1 = load ptr, ptr %onend_cb_, align 8
  %cmp3 = icmp ne ptr %1, null
  br i1 %cmp3, label %if.then4, label %if.end7

if.then4:                                         ; preds = %if.end
  %onend_cb_5 = getelementptr inbounds %"class.node::crypto::ClientHelloParser", ptr %this1, i32 0, i32 2
  %2 = load ptr, ptr %onend_cb_5, align 8
  %cb_arg_ = getelementptr inbounds %"class.node::crypto::ClientHelloParser", ptr %this1, i32 0, i32 3
  %3 = load ptr, ptr %cb_arg_, align 8
  call void %2(ptr noundef %3)
  %onend_cb_6 = getelementptr inbounds %"class.node::crypto::ClientHelloParser", ptr %this1, i32 0, i32 2
  store ptr null, ptr %onend_cb_6, align 8
  br label %if.end7

if.end7:                                          ; preds = %if.then4, %if.end, %if.then
  ret void
}

; Function Attrs: mustprogress nounwind uwtable
define linkonce_odr dso_local noundef ptr @_ZN4node10BaseObject12FromJSObjectEN2v85LocalINS1_5ValueEEE(ptr %value.coerce) #4 comdat align 2 {
entry:
  %this.addr.i43 = alloca ptr, align 8
  %other.addr.i = alloca ptr, align 8
  %this.addr.i.i40 = alloca ptr, align 8
  %other.addr.i.i = alloca ptr, align 8
  %retval.i41 = alloca %"class.v8::Local", align 8
  %that.i = alloca %"class.v8::Local.313", align 8
  %ref.tmp.i = alloca %"class.v8::LocalBase", align 8
  %slot.addr.i = alloca ptr, align 8
  %this.addr.i.i = alloca ptr, align 8
  %this.addr.i38 = alloca ptr, align 8
  %heap_object_ptr.addr.i32 = alloca i64, align 8
  %offset.addr.i33 = alloca i32, align 4
  %addr.i34 = alloca i64, align 8
  %heap_object_ptr.addr.i26 = alloca i64, align 8
  %offset.addr.i27 = alloca i32, align 4
  %addr.i28 = alloca i64, align 8
  %heap_object_ptr.addr.i21 = alloca i64, align 8
  %offset.addr.i22 = alloca i32, align 4
  %addr.i = alloca i64, align 8
  %heap_object_ptr.addr.i18 = alloca i64, align 8
  %offset.addr.i19 = alloca i32, align 4
  %isolate.addr.i = alloca ptr, align 8
  %heap_object_ptr.addr.i = alloca i64, align 8
  %offset.addr.i = alloca i32, align 4
  %obj.addr.i16 = alloca i64, align 8
  %instance_type.addr.i = alloca i32, align 4
  %obj.addr.i = alloca i64, align 8
  %map.i = alloca i64, align 8
  %value.addr.i = alloca ptr, align 8
  %retval.i11 = alloca ptr, align 8
  %this.addr.i12 = alloca ptr, align 8
  %index.addr.i = alloca i32, align 4
  %obj.i = alloca i64, align 8
  %instance_type.i = alloca i32, align 4
  %offset.i = alloca i32, align 4
  %isolate.i = alloca ptr, align 8
  %value.i = alloca i64, align 8
  %this.addr.i8 = alloca ptr, align 8
  %retval.i = alloca %"class.v8::Local", align 8
  %this.addr.i = alloca ptr, align 8
  %agg.tmp.i = alloca %"class.v8::Local.313", align 8
  %value = alloca %"class.v8::Local.313", align 8
  %obj = alloca %"class.v8::Local", align 8
  %coerce.dive = getelementptr inbounds %"class.v8::Local.313", ptr %value, i32 0, i32 0
  %coerce.dive1 = getelementptr inbounds %"class.v8::LocalBase.314", ptr %coerce.dive, i32 0, i32 0
  %coerce.dive2 = getelementptr inbounds %"class.v8::IndirectHandleBase", ptr %coerce.dive1, i32 0, i32 0
  store ptr %value.coerce, ptr %coerce.dive2, align 8
  store ptr %value, ptr %this.addr.i, align 8
  %this1.i = load ptr, ptr %this.addr.i, align 8
  call void @llvm.memcpy.p0.p0.i64(ptr align 8 %agg.tmp.i, ptr align 8 %this1.i, i64 8, i1 false)
  %0 = load ptr, ptr %agg.tmp.i, align 8
  store ptr %0, ptr %that.i, align 8
  store ptr %ref.tmp.i, ptr %this.addr.i43, align 8
  store ptr %that.i, ptr %other.addr.i, align 8
  %this1.i44 = load ptr, ptr %this.addr.i43, align 8
  %1 = load ptr, ptr %other.addr.i, align 8
  call void @llvm.memcpy.p0.p0.i64(ptr align 8 %this1.i44, ptr align 8 %1, i64 8, i1 false)
  store ptr %retval.i41, ptr %this.addr.i.i40, align 8
  store ptr %ref.tmp.i, ptr %other.addr.i.i, align 8
  %this1.i.i42 = load ptr, ptr %this.addr.i.i40, align 8
  %2 = load ptr, ptr %other.addr.i.i, align 8
  call void @llvm.memcpy.p0.p0.i64(ptr align 8 %this1.i.i42, ptr align 8 %2, i64 8, i1 false)
  %3 = load ptr, ptr %retval.i41, align 8
  store ptr %3, ptr %retval.i, align 8
  %4 = load ptr, ptr %retval.i, align 8
  %coerce.dive3 = getelementptr inbounds %"class.v8::Local", ptr %obj, i32 0, i32 0
  %coerce.dive4 = getelementptr inbounds %"class.v8::LocalBase", ptr %coerce.dive3, i32 0, i32 0
  %coerce.dive5 = getelementptr inbounds %"class.v8::IndirectHandleBase", ptr %coerce.dive4, i32 0, i32 0
  store ptr %4, ptr %coerce.dive5, align 8
  store ptr %obj, ptr %this.addr.i8, align 8
  %this1.i9 = load ptr, ptr %this.addr.i8, align 8
  store ptr %this1.i9, ptr %this.addr.i38, align 8
  %this1.i39 = load ptr, ptr %this.addr.i38, align 8
  store ptr %this1.i39, ptr %this.addr.i.i, align 8
  %this1.i.i = load ptr, ptr %this.addr.i.i, align 8
  %5 = load ptr, ptr %this1.i.i, align 8
  store ptr %5, ptr %slot.addr.i, align 8
  %6 = load ptr, ptr %slot.addr.i, align 8
  store ptr %6, ptr %this.addr.i12, align 8
  store i32 1, ptr %index.addr.i, align 4
  %this1.i13 = load ptr, ptr %this.addr.i12, align 8
  store ptr %this1.i13, ptr %value.addr.i, align 8
  %7 = load ptr, ptr %value.addr.i, align 8
  %8 = load i64, ptr %7, align 8
  store i64 %8, ptr %obj.i, align 8
  %9 = load i64, ptr %obj.i, align 8
  store i64 %9, ptr %obj.addr.i, align 8
  %10 = load i64, ptr %obj.addr.i, align 8
  store i64 %10, ptr %heap_object_ptr.addr.i18, align 8
  store i32 0, ptr %offset.addr.i19, align 4
  %11 = load i64, ptr %heap_object_ptr.addr.i18, align 8
  %12 = load i32, ptr %offset.addr.i19, align 4
  store i64 %11, ptr %heap_object_ptr.addr.i26, align 8
  store i32 %12, ptr %offset.addr.i27, align 4
  %13 = load i64, ptr %heap_object_ptr.addr.i26, align 8
  %14 = load i32, ptr %offset.addr.i27, align 4
  %conv.i29 = sext i32 %14 to i64
  %add.i30 = add i64 %13, %conv.i29
  %sub.i31 = sub i64 %add.i30, 1
  store i64 %sub.i31, ptr %addr.i28, align 8
  %15 = load i64, ptr %addr.i28, align 8
  %16 = inttoptr i64 %15 to ptr
  %17 = load i64, ptr %16, align 8
  store i64 %17, ptr %map.i, align 8
  %18 = load i64, ptr %map.i, align 8
  store i64 %18, ptr %heap_object_ptr.addr.i21, align 8
  store i32 12, ptr %offset.addr.i22, align 4
  %19 = load i64, ptr %heap_object_ptr.addr.i21, align 8
  %20 = load i32, ptr %offset.addr.i22, align 4
  %conv.i23 = sext i32 %20 to i64
  %add.i24 = add i64 %19, %conv.i23
  %sub.i25 = sub i64 %add.i24, 1
  store i64 %sub.i25, ptr %addr.i, align 8
  %21 = load i64, ptr %addr.i, align 8
  %22 = inttoptr i64 %21 to ptr
  %23 = load i16, ptr %22, align 2
  %conv.i = zext i16 %23 to i32
  store i32 %conv.i, ptr %instance_type.i, align 4
  %24 = load i32, ptr %instance_type.i, align 4
  store i32 %24, ptr %instance_type.addr.i, align 4
  %25 = load i32, ptr %instance_type.addr.i, align 4
  %cmp.i = icmp eq i32 %25, 1040
  br i1 %cmp.i, label %_ZN2v88internal9Internals20CanHaveInternalFieldEi.exit, label %lor.rhs.i

lor.rhs.i:                                        ; preds = %entry
  %26 = load i32, ptr %instance_type.addr.i, align 4
  %sub.i = sub i32 %26, 1057
  %cmp1.i = icmp ule i32 %sub.i, 1001
  br label %_ZN2v88internal9Internals20CanHaveInternalFieldEi.exit

_ZN2v88internal9Internals20CanHaveInternalFieldEi.exit: ; preds = %lor.rhs.i, %entry
  %27 = phi i1 [ true, %entry ], [ %cmp1.i, %lor.rhs.i ]
  br i1 %27, label %if.then.i, label %if.end.i

if.then.i:                                        ; preds = %_ZN2v88internal9Internals20CanHaveInternalFieldEi.exit
  %28 = load i32, ptr %index.addr.i, align 4
  %mul.i = mul nsw i32 8, %28
  %add.i = add nsw i32 24, %mul.i
  store i32 %add.i, ptr %offset.i, align 4
  %29 = load i64, ptr %obj.i, align 8
  store i64 %29, ptr %obj.addr.i16, align 8
  store ptr null, ptr %isolate.i, align 8
  %30 = load ptr, ptr %isolate.i, align 8
  %31 = load i64, ptr %obj.i, align 8
  %32 = load i32, ptr %offset.i, align 4
  store ptr %30, ptr %isolate.addr.i, align 8
  store i64 %31, ptr %heap_object_ptr.addr.i, align 8
  store i32 %32, ptr %offset.addr.i, align 4
  %33 = load i64, ptr %heap_object_ptr.addr.i, align 8
  %34 = load i32, ptr %offset.addr.i, align 4
  store i64 %33, ptr %heap_object_ptr.addr.i32, align 8
  store i32 %34, ptr %offset.addr.i33, align 4
  %35 = load i64, ptr %heap_object_ptr.addr.i32, align 8
  %36 = load i32, ptr %offset.addr.i33, align 4
  %conv.i35 = sext i32 %36 to i64
  %add.i36 = add i64 %35, %conv.i35
  %sub.i37 = sub i64 %add.i36, 1
  store i64 %sub.i37, ptr %addr.i34, align 8
  %37 = load i64, ptr %addr.i34, align 8
  %38 = inttoptr i64 %37 to ptr
  %39 = load i64, ptr %38, align 8
  store i64 %39, ptr %value.i, align 8
  %40 = load i64, ptr %value.i, align 8
  %41 = inttoptr i64 %40 to ptr
  store ptr %41, ptr %retval.i11, align 8
  br label %_ZN2v86Object34GetAlignedPointerFromInternalFieldEi.exit

if.end.i:                                         ; preds = %_ZN2v88internal9Internals20CanHaveInternalFieldEi.exit
  %42 = load i32, ptr %index.addr.i, align 4
  %call7.i = call noundef ptr @_ZN2v86Object38SlowGetAlignedPointerFromInternalFieldEi(ptr noundef nonnull align 1 dereferenceable(1) %this1.i13, i32 noundef %42) #3
  store ptr %call7.i, ptr %retval.i11, align 8
  br label %_ZN2v86Object34GetAlignedPointerFromInternalFieldEi.exit

_ZN2v86Object34GetAlignedPointerFromInternalFieldEi.exit: ; preds = %if.end.i, %if.then.i
  %43 = load ptr, ptr %retval.i11, align 8
  ret ptr %43
}

; Function Attrs: mustprogress nounwind uwtable
define dso_local void @_ZN4node6crypto7TLSWrap9EndParserERKN2v820FunctionCallbackInfoINS2_5ValueEEE(ptr noundef nonnull align 8 dereferenceable(20) %args) #4 align 2 {
entry:
  %this.addr.i.i.i = alloca ptr, align 8
  %location.addr.i.i.i = alloca ptr, align 8
  %this.addr.i.i16 = alloca ptr, align 8
  %location.addr.i.i = alloca ptr, align 8
  %retval.i17 = alloca %"class.v8::LocalBase", align 8
  %slot.addr.i18 = alloca ptr, align 8
  %this.addr.i.i = alloca ptr, align 8
  %other.addr.i.i = alloca ptr, align 8
  %retval.i14 = alloca %"class.v8::Local", align 8
  %slot.addr.i = alloca ptr, align 8
  %ref.tmp.i = alloca %"class.v8::LocalBase", align 8
  %this.addr.i12 = alloca ptr, align 8
  %other.addr.i = alloca ptr, align 8
  %retval.i = alloca %"class.v8::Local", align 8
  %this.addr.i11 = alloca ptr, align 8
  %that.i = alloca %"class.v8::Local", align 8
  %this.addr.i = alloca ptr, align 8
  %args.addr = alloca ptr, align 8
  %w = alloca ptr, align 8
  %agg.tmp = alloca %"class.v8::Local.313", align 8
  %agg.tmp1 = alloca %"class.v8::Local", align 8
  store ptr %args, ptr %args.addr, align 8
  br label %do.body

do.body:                                          ; preds = %entry
  %0 = load ptr, ptr %args.addr, align 8
  store ptr %0, ptr %this.addr.i11, align 8
  %this1.i = load ptr, ptr %this.addr.i11, align 8
  %1 = load ptr, ptr %this1.i, align 8
  store ptr %1, ptr %slot.addr.i, align 8
  %2 = load ptr, ptr %slot.addr.i, align 8
  store ptr %2, ptr %slot.addr.i18, align 8
  %3 = load ptr, ptr %slot.addr.i18, align 8
  store ptr %retval.i17, ptr %this.addr.i.i16, align 8
  store ptr %3, ptr %location.addr.i.i, align 8
  %this1.i.i19 = load ptr, ptr %this.addr.i.i16, align 8
  %4 = load ptr, ptr %location.addr.i.i, align 8
  store ptr %this1.i.i19, ptr %this.addr.i.i.i, align 8
  store ptr %4, ptr %location.addr.i.i.i, align 8
  %this1.i.i.i = load ptr, ptr %this.addr.i.i.i, align 8
  %5 = load ptr, ptr %location.addr.i.i.i, align 8
  store ptr %5, ptr %this1.i.i.i, align 8
  %6 = load ptr, ptr %retval.i17, align 8
  store ptr %6, ptr %ref.tmp.i, align 8
  store ptr %retval.i14, ptr %this.addr.i.i, align 8
  store ptr %ref.tmp.i, ptr %other.addr.i.i, align 8
  %this1.i.i = load ptr, ptr %this.addr.i.i, align 8
  %7 = load ptr, ptr %other.addr.i.i, align 8
  call void @llvm.memcpy.p0.p0.i64(ptr align 8 %this1.i.i, ptr align 8 %7, i64 8, i1 false)
  %8 = load ptr, ptr %retval.i14, align 8
  store ptr %8, ptr %retval.i, align 8
  %9 = load ptr, ptr %retval.i, align 8
  %coerce.dive = getelementptr inbounds %"class.v8::Local", ptr %agg.tmp1, i32 0, i32 0
  %coerce.dive2 = getelementptr inbounds %"class.v8::LocalBase", ptr %coerce.dive, i32 0, i32 0
  %coerce.dive3 = getelementptr inbounds %"class.v8::IndirectHandleBase", ptr %coerce.dive2, i32 0, i32 0
  store ptr %9, ptr %coerce.dive3, align 8
  %coerce.dive4 = getelementptr inbounds %"class.v8::Local", ptr %agg.tmp1, i32 0, i32 0
  %coerce.dive5 = getelementptr inbounds %"class.v8::LocalBase", ptr %coerce.dive4, i32 0, i32 0
  %coerce.dive6 = getelementptr inbounds %"class.v8::IndirectHandleBase", ptr %coerce.dive5, i32 0, i32 0
  %10 = load ptr, ptr %coerce.dive6, align 8
  store ptr %10, ptr %that.i, align 8
  store ptr %agg.tmp, ptr %this.addr.i, align 8
  %this3.i = load ptr, ptr %this.addr.i, align 8
  store ptr %this3.i, ptr %this.addr.i12, align 8
  store ptr %that.i, ptr %other.addr.i, align 8
  %this1.i13 = load ptr, ptr %this.addr.i12, align 8
  %11 = load ptr, ptr %other.addr.i, align 8
  call void @llvm.memcpy.p0.p0.i64(ptr align 8 %this1.i13, ptr align 8 %11, i64 8, i1 false)
  %coerce.dive7 = getelementptr inbounds %"class.v8::Local.313", ptr %agg.tmp, i32 0, i32 0
  %coerce.dive8 = getelementptr inbounds %"class.v8::LocalBase.314", ptr %coerce.dive7, i32 0, i32 0
  %coerce.dive9 = getelementptr inbounds %"class.v8::IndirectHandleBase", ptr %coerce.dive8, i32 0, i32 0
  %12 = load ptr, ptr %coerce.dive9, align 8
  %call10 = call noundef ptr @_ZN4node10BaseObject12FromJSObjectEN2v85LocalINS1_5ValueEEE(ptr %12)
  store ptr %call10, ptr %w, align 8
  %13 = load ptr, ptr %w, align 8
  %cmp = icmp eq ptr %13, null
  br i1 %cmp, label %if.then, label %if.end

if.then:                                          ; preds = %do.body
  br label %return

if.end:                                           ; preds = %do.body
  br label %do.end

do.end:                                           ; preds = %if.end
  %14 = load ptr, ptr %w, align 8
  %hello_parser_ = getelementptr inbounds %"class.node::crypto::TLSWrap", ptr %14, i32 0, i32 8
  call void @_ZN4node6crypto17ClientHelloParser3EndEv(ptr noundef nonnull align 8 dereferenceable(104) %hello_parser_)
  br label %return

return:                                           ; preds = %do.end, %if.then
  ret void
}